Certificate:
    Data:
        Version: 3 (0x2)
        Serial Number: 4096 (0x1000)
        Signature Algorithm: sha256WithRSAEncryption
        Issuer: CN=rootCA_standalone.standalone.localdomain
        Validity
            Not Before: Jun  5 05:11:17 2024 GMT
            Not After : Jun  3 05:11:17 2034 GMT
        Subject: CN=intermediate.standalone.localdomain
        Subject Public Key Info:
            Public Key Algorithm: rsaEncryption
                Public-Key: (4096 bit)
                Modulus:
                    00:d8:c3:e8:04:97:ce:81:7f:3e:3a:d2:c9:9b:7b:
                    4e:fc:46:73:bc:83:50:88:3f:9e:9f:36:e0:6d:0d:
                    9e:64:a7:7f:74:d8:8d:23:55:fc:bb:91:0f:1a:a5:
                    52:f1:fb:f4:20:8f:50:88:01:eb:82:0d:47:14:06:
                    c6:ca:7c:c0:be:7b:8d:02:3b:da:54:17:3d:cb:41:
                    99:33:b8:94:a2:7a:41:69:dc:56:d2:69:02:8e:66:
                    3f:fa:bc:ae:82:21:f2:05:6c:43:00:e4:e9:52:96:
                    7f:bc:c5:47:25:cb:e7:2b:0a:0f:74:21:de:0e:67:
                    48:ef:92:72:62:a5:81:dd:b3:9c:c8:4d:bf:57:5c:
                    b7:35:6f:67:37:ce:07:cb:00:f6:59:58:72:7a:e0:
                    2f:07:4b:99:51:ff:88:ce:fc:0c:b2:70:f8:57:fa:
                    d6:cf:ba:2a:ca:5f:e5:c6:54:39:fa:71:cb:a2:ba:
                    4c:2a:c4:7b:d4:b6:e4:8a:31:bf:81:34:0a:2b:57:
                    94:01:56:69:b0:70:a9:64:2e:68:f2:5b:4a:82:9c:
                    52:85:1c:d4:39:82:27:8c:4f:74:6b:84:c3:91:9f:
                    a8:5a:bb:00:5b:b3:ee:ca:17:06:a7:34:e8:ee:9b:
                    d4:d5:5e:eb:94:73:31:3d:23:9c:c5:7e:63:29:20:
                    29:44:9e:64:34:64:e4:0a:f6:1b:9d:2f:f7:02:f6:
                    5d:0a:6c:0f:7b:29:6d:ab:e7:5d:f1:32:b5:e9:3d:
                    c9:d6:a9:2c:f4:bc:3a:ed:09:00:7f:7c:39:e3:c2:
                    0d:eb:2c:52:ce:45:3d:bd:7c:7f:15:64:a8:ff:32:
                    c2:ca:98:ff:ab:3a:ec:45:d6:7c:11:44:1e:b0:b2:
                    64:99:06:ea:40:d2:2a:35:f9:f8:2d:cd:17:2b:46:
                    e6:2b:73:2e:5b:4b:c9:2f:7f:6d:e9:1e:07:4f:3e:
                    d8:cd:33:c1:c4:8d:f5:23:87:1b:ce:f7:0d:b3:67:
                    90:cb:88:58:28:9e:25:29:b3:bc:ca:f5:a5:7d:7b:
                    9c:c0:5a:36:39:08:25:28:0b:f8:2d:ae:82:b8:38:
                    7d:63:16:d3:44:e9:46:76:e3:10:1c:52:ae:0c:5d:
                    2e:48:6b:92:78:2f:ea:c1:d0:08:1d:cb:8a:97:06:
                    ab:35:e0:ae:33:43:a5:ba:63:2e:26:98:a0:54:5a:
                    90:43:22:00:02:29:e5:45:dc:fd:f0:2c:81:da:ed:
                    19:cc:6e:72:ea:c7:08:a0:ee:8b:51:ab:f7:fd:f7:
                    fc:3f:b6:bc:b9:57:6f:fa:e6:e1:8c:08:60:32:1d:
                    f3:61:02:b3:56:e8:fe:33:df:07:28:ec:fa:0a:58:
                    b1:28:8d
                Exponent: 65537 (0x10001)
        X509v3 extensions:
            X509v3 Subject Key Identifier: 
                7C:B9:AE:3B:2E:5A:BF:77:04:68:64:B2:A2:B6:88:18:AF:B3:C6:34
            X509v3 Basic Constraints: 
                CA:TRUE
            X509v3 Subject Alternative Name: 
                DNS:standalone.localdomain, DNS:*.standalone.localdomain
            X509v3 Authority Key Identifier: 
                F2:E1:17:F8:E2:08:FA:CF:C7:6C:9B:AA:33:9C:06:D8:A7:78:80:F4
    Signature Algorithm: sha256WithRSAEncryption
    Signature Value:
        9b:70:50:d8:fc:92:47:b5:71:f5:14:51:cf:5c:78:4c:d4:e4:
        97:6a:99:3d:50:41:3d:b8:b3:26:87:76:c3:b2:d1:e7:2b:ae:
        36:b0:18:c6:ec:55:56:aa:ac:95:99:41:9f:86:95:ec:84:a5:
        79:77:5e:0f:c8:e0:66:10:a6:81:90:98:78:d6:8e:74:2a:d8:
        ad:48:f9:30:41:61:c9:ee:9d:23:c8:5b:f7:37:a0:fa:30:89:
        41:6b:71:47:df:9f:42:4b:8d:7c:b0:6e:6c:11:b7:b0:c2:e9:
        f3:59:c7:87:96:ec:a8:4e:2f:f4:20:cf:44:b6:93:c5:06:1d:
        53:63:f2:ac:56:27:98:ad:93:80:7b:66:35:67:2a:d4:f7:80:
        87:6a:ef:a5:ab:d6:f4:5a:6e:aa:e0:5f:66:47:37:7a:f5:c0:
        3c:8b:67:fc:cb:a4:50:eb:32:f5:54:40:80:6e:aa:10:6d:ac:
        ea:7b:2b:b1:e2:bc:ad:ed:83:65:a7:5d:af:1f:34:9d:4d:d1:
        f2:b6:59:1a:1e:d6:52:1b:8b:72:c5:a4:c4:80:7a:34:e5:99:
        e7:64:8b:6a:b9:94:8a:09:a8:0d:b5:d7:de:22:75:d8:0d:ef:
        22:82:b2:ba:12:8c:13:2c:ae:16:99:34:f6:ea:f2:bb:38:48:
        ce:6a:13:de
-----BEGIN CERTIFICATE-----
MIIEbDCCA1SgAwIBAgICEAAwDQYJKoZIhvcNAQELBQAwMzExMC8GA1UEAwwocm9v
dENBX3N0YW5kYWxvbmUuc3RhbmRhbG9uZS5sb2NhbGRvbWFpbjAeFw0yNDA2MDUw
NTExMTdaFw0zNDA2MDMwNTExMTdaMC4xLDAqBgNVBAMMI2ludGVybWVkaWF0ZS5z
dGFuZGFsb25lLmxvY2FsZG9tYWluMIICIjANBgkqhkiG9w0BAQEFAAOCAg8AMIIC
CgKCAgEA2MPoBJfOgX8+OtLJm3tO/EZzvINQiD+enzbgbQ2eZKd/dNiNI1X8u5EP
GqVS8fv0II9QiAHrgg1HFAbGynzAvnuNAjvaVBc9y0GZM7iUonpBadxW0mkCjmY/
+ryugiHyBWxDAOTpUpZ/vMVHJcvnKwoPdCHeDmdI75JyYqWB3bOcyE2/V1y3NW9n
N84HywD2WVhyeuAvB0uZUf+IzvwMsnD4V/rWz7oqyl/lxlQ5+nHLorpMKsR71Lbk
ijG/gTQKK1eUAVZpsHCpZC5o8ltKgpxShRzUOYInjE90a4TDkZ+oWrsAW7PuyhcG
pzTo7pvU1V7rlHMxPSOcxX5jKSApRJ5kNGTkCvYbnS/3AvZdCmwPeyltq+dd8TK1
6T3J1qks9Lw67QkAf3w548IN6yxSzkU9vXx/FWSo/zLCypj/qzrsRdZ8EUQesLJk
mQbqQNIqNfn4Lc0XK0bmK3MuW0vJL39t6R4HTz7YzTPBxI31I4cbzvcNs2eQy4hY
KJ4lKbO8yvWlfXucwFo2OQglKAv4La6CuDh9YxbTROlGduMQHFKuDF0uSGuSeC/q
wdAIHcuKlwarNeCuM0OlumMuJpigVFqQQyIAAinlRdz98CyB2u0ZzG5y6scIoO6L
Uav3/ff8P7a8uVdv+ubhjAhgMh3zYQKzVuj+M98HKOz6ClixKI0CAwEAAaOBjjCB
izAdBgNVHQ4EFgQUfLmuOy5av3cEaGSyoraIGK+zxjQwDAYDVR0TBAUwAwEB/zA7
BgNVHREENDAyghZzdGFuZGFsb25lLmxvY2FsZG9tYWlughgqLnN0YW5kYWxvbmUu
bG9jYWxkb21haW4wHwYDVR0jBBgwFoAU8uEX+OII+s/HbJuqM5wG2Kd4gPQwDQYJ
KoZIhvcNAQELBQADggEBAJtwUNj8kke1cfUUUc9ceEzU5JdqmT1QQT24syaHdsOy
0ecrrjawGMbsVVaqrJWZQZ+GleyEpXl3Xg/I4GYQpoGQmHjWjnQq2K1I+TBBYcnu
nSPIW/c3oPowiUFrcUffn0JLjXywbmwRt7DC6fNZx4eW7KhOL/Qgz0S2k8UGHVNj
8qxWJ5itk4B7ZjVnKtT3gIdq76Wr1vRabqrgX2ZHN3r1wDyLZ/zLpFDrMvVUQIBu
qhBtrOp7K7HivK3tg2WnXa8fNJ1N0fK2WRoe1lIbi3LFpMSAejTlmedki2q5lIoJ
qA21194iddgN7yKCsroSjBMsrhaZNPbq8rs4SM5qE94=
-----END CERTIFICATE-----
